target datalayout = "e-m:e-p270:32:32-p271:32:32-p272:64:64-i64:64-i128:128-f80:128-n8:16:32:64-S128"
target triple = "x86_64-pc-linux-gnu"

%"struct.OpenColorIO_v2_5dev::GradingTonePreRender" = type { double, double, double, double, double, double, double, double, [4 x [6 x float]], [4 x [6 x float]], [4 x [6 x float]], [2 x [4 x [3 x float]]], [2 x [4 x [3 x float]]], [2 x [4 x [2 x float]]], [2 x [4 x [2 x float]]], [2 x [4 x [2 x float]]], [2 x [4 x [2 x float]]], [2 x [4 x float]], [2 x [4 x float]], [2 x [4 x float]], [2 x [2 x float]], float, float, float, float, i8, i32 }

; Function Attrs: mustprogress nounwind uwtable
define hidden void @_ZN19OpenColorIO_v2_5dev20GradingTonePreRender9FromStyleENS_12GradingStyleERfS2_S2_S2_(i32 noundef %0, ptr noundef nonnull align 4 dereferenceable(4) %1, ptr noundef nonnull align 4 dereferenceable(4) %2, ptr noundef nonnull align 4 dereferenceable(4) %3, ptr noundef nonnull align 4 dereferenceable(4) %4) #4 align 2 {
  %6 = alloca i32, align 4
  %7 = alloca ptr, align 8
  %8 = alloca ptr, align 8
  %9 = alloca ptr, align 8
  %10 = alloca ptr, align 8
  store i32 %0, ptr %6, align 4, !tbaa !35
  store ptr %1, ptr %7, align 8, !tbaa !58
  store ptr %2, ptr %8, align 8, !tbaa !58
  store ptr %3, ptr %9, align 8, !tbaa !58
  store ptr %4, ptr %10, align 8, !tbaa !58
  %11 = load i32, ptr %6, align 4, !tbaa !35
  switch i32 %11, label %27 [
    i32 0, label %12
    i32 1, label %17
    i32 2, label %22
  ]

12:                                               ; preds = %5
  %13 = load ptr, ptr %7, align 8, !tbaa !58
  store float 1.000000e+00, ptr %13, align 4, !tbaa !51
  %14 = load ptr, ptr %8, align 8, !tbaa !58
  store float 1.000000e+00, ptr %14, align 4, !tbaa !51
  %15 = load ptr, ptr %9, align 8, !tbaa !58
  store float 0.000000e+00, ptr %15, align 4, !tbaa !51
  %16 = load ptr, ptr %10, align 8, !tbaa !58
  store float 0x3FD99999A0000000, ptr %16, align 4, !tbaa !51
  br label %28

17:                                               ; preds = %5
  %18 = load ptr, ptr %7, align 8, !tbaa !58
  store float 7.500000e+00, ptr %18, align 4, !tbaa !51
  %19 = load ptr, ptr %8, align 8, !tbaa !58
  store float 6.500000e+00, ptr %19, align 4, !tbaa !51
  %20 = load ptr, ptr %9, align 8, !tbaa !58
  store float -5.500000e+00, ptr %20, align 4, !tbaa !51
  %21 = load ptr, ptr %10, align 8, !tbaa !58
  store float 0.000000e+00, ptr %21, align 4, !tbaa !51
  br label %28

22:                                               ; preds = %5
  %23 = load ptr, ptr %7, align 8, !tbaa !58
  store float 1.000000e+00, ptr %23, align 4, !tbaa !51
  %24 = load ptr, ptr %8, align 8, !tbaa !58
  store float 1.000000e+00, ptr %24, align 4, !tbaa !51
  %25 = load ptr, ptr %9, align 8, !tbaa !58
  store float 0.000000e+00, ptr %25, align 4, !tbaa !51
  %26 = load ptr, ptr %10, align 8, !tbaa !58
  store float 0x3FD99999A0000000, ptr %26, align 4, !tbaa !51
  br label %28

27:                                               ; preds = %5
  br label %28

28:                                               ; preds = %27, %22, %17, %12
  ret void
}

; Function Attrs: mustprogress nounwind uwtable
define hidden void @_ZN19OpenColorIO_v2_5dev20GradingTonePreRender8setStyleENS_12GradingStyleE(ptr noundef nonnull align 8 dereferenceable(936) %0, i32 noundef %1) #4 align 2 {
  %3 = alloca ptr, align 8
  %4 = alloca i32, align 4
  store ptr %0, ptr %3, align 8, !tbaa !33
  store i32 %1, ptr %4, align 4, !tbaa !35
  %5 = load ptr, ptr %3, align 8
  %6 = getelementptr inbounds nuw %"struct.OpenColorIO_v2_5dev::GradingTonePreRender", ptr %5, i32 0, i32 26
  %7 = load i32, ptr %6, align 4, !tbaa !57
  %8 = load i32, ptr %4, align 4, !tbaa !35
  %9 = icmp ne i32 %7, %8
  br i1 %9, label %10, label %18

10:                                               ; preds = %2
  %11 = load i32, ptr %4, align 4, !tbaa !35
  %12 = getelementptr inbounds nuw %"struct.OpenColorIO_v2_5dev::GradingTonePreRender", ptr %5, i32 0, i32 26
  store i32 %11, ptr %12, align 4, !tbaa !57
  %13 = load i32, ptr %4, align 4, !tbaa !35
  %14 = getelementptr inbounds nuw %"struct.OpenColorIO_v2_5dev::GradingTonePreRender", ptr %5, i32 0, i32 21
  %15 = getelementptr inbounds nuw %"struct.OpenColorIO_v2_5dev::GradingTonePreRender", ptr %5, i32 0, i32 22
  %16 = getelementptr inbounds nuw %"struct.OpenColorIO_v2_5dev::GradingTonePreRender", ptr %5, i32 0, i32 23
  %17 = getelementptr inbounds nuw %"struct.OpenColorIO_v2_5dev::GradingTonePreRender", ptr %5, i32 0, i32 24
  call void @_ZN19OpenColorIO_v2_5dev20GradingTonePreRender9FromStyleENS_12GradingStyleERfS2_S2_S2_(i32 noundef %13, ptr noundef nonnull align 4 dereferenceable(4) %14, ptr noundef nonnull align 4 dereferenceable(4) %15, ptr noundef nonnull align 4 dereferenceable(4) %16, ptr noundef nonnull align 4 dereferenceable(4) %17)
  br label %18

18:                                               ; preds = %10, %2
  ret void
}