; Function Attrs: mustprogress nofree norecurse nosync nounwind willreturn memory(argmem: readwrite) uwtable
define hidden void @_ZN19OpenColorIO_v2_5dev20GradingTonePreRender8setStyleENS_12GradingStyleE(ptr noundef nonnull align 8 captures(none) dereferenceable(936) %0, i32 noundef %1) local_unnamed_addr #10 align 2 {
  %3 = getelementptr inbounds nuw i8, ptr %0, i64 932
  %4 = load i32, ptr %3, align 4, !tbaa !32
  %.not = icmp eq i32 %4, %1
  br i1 %.not, label %_ZN19OpenColorIO_v2_5dev20GradingTonePreRender9FromStyleENS_12GradingStyleERfS2_S2_S2_.exit, label %5

5:                                                ; preds = %2
  store i32 %1, ptr %3, align 4, !tbaa !32
  %6 = icmp ult i32 %1, 3
  br i1 %6, label %switch.lookup, label %_ZN19OpenColorIO_v2_5dev20GradingTonePreRender9FromStyleENS_12GradingStyleERfS2_S2_S2_.exit

switch.lookup:                                    ; preds = %5
  %7 = getelementptr inbounds nuw i8, ptr %0, i64 924
  %8 = getelementptr inbounds nuw i8, ptr %0, i64 920
  %9 = getelementptr inbounds nuw i8, ptr %0, i64 916
  %10 = getelementptr inbounds nuw i8, ptr %0, i64 912
  %11 = zext nneg i32 %1 to i64
  %switch.gep = getelementptr inbounds nuw [3 x float], ptr @switch.table._ZN19OpenColorIO_v2_5dev20GradingTonePreRender9FromStyleENS_12GradingStyleERfS2_S2_S2_, i64 0, i64 %11
  %switch.load = load float, ptr %switch.gep, align 4
  %12 = zext nneg i32 %1 to i64
  %switch.gep3 = getelementptr inbounds nuw [3 x float], ptr @switch.table._ZN19OpenColorIO_v2_5dev20GradingTonePreRender9FromStyleENS_12GradingStyleERfS2_S2_S2_.4, i64 0, i64 %12
  %switch.load4 = load float, ptr %switch.gep3, align 4
  %13 = zext nneg i32 %1 to i64
  %switch.gep5 = getelementptr inbounds nuw [3 x float], ptr @switch.table._ZN19OpenColorIO_v2_5dev20GradingTonePreRender9FromStyleENS_12GradingStyleERfS2_S2_S2_.5, i64 0, i64 %13
  %switch.load6 = load float, ptr %switch.gep5, align 4
  %14 = zext nneg i32 %1 to i64
  %switch.gep7 = getelementptr inbounds nuw [3 x float], ptr @switch.table._ZN19OpenColorIO_v2_5dev20GradingTonePreRender9FromStyleENS_12GradingStyleERfS2_S2_S2_.6, i64 0, i64 %14
  %switch.load8 = load float, ptr %switch.gep7, align 4
  store float %switch.load, ptr %10, align 8, !tbaa !33
  store float %switch.load4, ptr %9, align 4, !tbaa !33
  store float %switch.load6, ptr %8, align 8, !tbaa !33
  store float %switch.load8, ptr %7, align 4, !tbaa !33
  br label %_ZN19OpenColorIO_v2_5dev20GradingTonePreRender9FromStyleENS_12GradingStyleERfS2_S2_S2_.exit

_ZN19OpenColorIO_v2_5dev20GradingTonePreRender9FromStyleENS_12GradingStyleERfS2_S2_S2_.exit: ; preds = %5, %switch.lookup, %2
  ret void
}